; ModuleID = '20/99.c'
source_filename = "20/99.c"
target datalayout = "e-m:e-p270:32:32-p271:32:32-p272:64:64-i64:64-f80:128-n8:16:32:64-S128"
target triple = "x86_64-pc-linux-gnu"

@.str = private unnamed_addr constant [5 x i8] c"%s%s\00", align 1
@.str.1 = private unnamed_addr constant [3 x i8] c"%c\00", align 1
@.str.2 = private unnamed_addr constant [3 x i8] c"%s\00", align 1
@.str.3 = private unnamed_addr constant [2 x i8] c"\0A\00", align 1

; Function Attrs: noinline nounwind uwtable
define dso_local void @main() #0 {
  %1 = alloca i32, align 4
  %2 = alloca i32, align 4
  %3 = alloca i32, align 4
  %4 = alloca [11 x i8], align 1
  %5 = alloca [4 x i8], align 1
  %6 = alloca i8*, align 8
  store i32 0, i32* %3, align 4
  br label %7

7:                                                ; preds = %77, %0
  %8 = getelementptr inbounds [11 x i8], [11 x i8]* %4, i64 0, i64 0
  %9 = getelementptr inbounds [4 x i8], [4 x i8]* %5, i64 0, i64 0
  %10 = call i32 (i8*, ...) @__isoc99_scanf(i8* getelementptr inbounds ([5 x i8], [5 x i8]* @.str, i64 0, i64 0), i8* %8, i8* %9)
  %11 = icmp ne i32 %10, -1
  br i1 %11, label %12, label %79

12:                                               ; preds = %7
  %13 = getelementptr inbounds [11 x i8], [11 x i8]* %4, i64 0, i64 0
  store i8* %13, i8** %6, align 8
  %14 = load i8*, i8** %6, align 8
  %15 = load i8, i8* %14, align 1
  %16 = sext i8 %15 to i32
  store i32 %16, i32* %2, align 4
  store i32 0, i32* %1, align 4
  br label %17

17:                                               ; preds = %35, %12
  %18 = load i32, i32* %1, align 4
  %19 = sext i32 %18 to i64
  %20 = getelementptr inbounds [11 x i8], [11 x i8]* %4, i64 0, i64 0
  %21 = call i64 @strlen(i8* %20) #3
  %22 = icmp ult i64 %19, %21
  br i1 %22, label %23, label %40

23:                                               ; preds = %17
  %24 = load i8*, i8** %6, align 8
  %25 = load i8, i8* %24, align 1
  %26 = sext i8 %25 to i32
  %27 = load i32, i32* %2, align 4
  %28 = icmp sgt i32 %26, %27
  br i1 %28, label %29, label %34

29:                                               ; preds = %23
  %30 = load i8*, i8** %6, align 8
  %31 = load i8, i8* %30, align 1
  %32 = sext i8 %31 to i32
  store i32 %32, i32* %2, align 4
  %33 = load i32, i32* %1, align 4
  store i32 %33, i32* %3, align 4
  br label %34

34:                                               ; preds = %29, %23
  br label %35

35:                                               ; preds = %34
  %36 = load i32, i32* %1, align 4
  %37 = add nsw i32 %36, 1
  store i32 %37, i32* %1, align 4
  %38 = load i8*, i8** %6, align 8
  %39 = getelementptr inbounds i8, i8* %38, i32 1
  store i8* %39, i8** %6, align 8
  br label %17

40:                                               ; preds = %17
  %41 = getelementptr inbounds [11 x i8], [11 x i8]* %4, i64 0, i64 0
  store i8* %41, i8** %6, align 8
  store i32 0, i32* %1, align 4
  br label %42

42:                                               ; preds = %53, %40
  %43 = load i32, i32* %1, align 4
  %44 = load i32, i32* %3, align 4
  %45 = icmp sle i32 %43, %44
  br i1 %45, label %46, label %56

46:                                               ; preds = %42
  %47 = load i32, i32* %1, align 4
  %48 = sext i32 %47 to i64
  %49 = getelementptr inbounds [11 x i8], [11 x i8]* %4, i64 0, i64 %48
  %50 = load i8, i8* %49, align 1
  %51 = sext i8 %50 to i32
  %52 = call i32 (i8*, ...) @printf(i8* getelementptr inbounds ([3 x i8], [3 x i8]* @.str.1, i64 0, i64 0), i32 %51)
  br label %53

53:                                               ; preds = %46
  %54 = load i32, i32* %1, align 4
  %55 = add nsw i32 %54, 1
  store i32 %55, i32* %1, align 4
  br label %42

56:                                               ; preds = %42
  %57 = getelementptr inbounds [4 x i8], [4 x i8]* %5, i64 0, i64 0
  %58 = call i32 (i8*, ...) @printf(i8* getelementptr inbounds ([3 x i8], [3 x i8]* @.str.2, i64 0, i64 0), i8* %57)
  %59 = load i32, i32* %3, align 4
  %60 = add nsw i32 %59, 1
  store i32 %60, i32* %1, align 4
  br label %61

61:                                               ; preds = %74, %56
  %62 = load i32, i32* %1, align 4
  %63 = sext i32 %62 to i64
  %64 = getelementptr inbounds [11 x i8], [11 x i8]* %4, i64 0, i64 0
  %65 = call i64 @strlen(i8* %64) #3
  %66 = icmp ult i64 %63, %65
  br i1 %66, label %67, label %77

67:                                               ; preds = %61
  %68 = load i32, i32* %1, align 4
  %69 = sext i32 %68 to i64
  %70 = getelementptr inbounds [11 x i8], [11 x i8]* %4, i64 0, i64 %69
  %71 = load i8, i8* %70, align 1
  %72 = sext i8 %71 to i32
  %73 = call i32 (i8*, ...) @printf(i8* getelementptr inbounds ([3 x i8], [3 x i8]* @.str.1, i64 0, i64 0), i32 %72)
  br label %74

74:                                               ; preds = %67
  %75 = load i32, i32* %1, align 4
  %76 = add nsw i32 %75, 1
  store i32 %76, i32* %1, align 4
  br label %61

77:                                               ; preds = %61
  %78 = call i32 (i8*, ...) @printf(i8* getelementptr inbounds ([2 x i8], [2 x i8]* @.str.3, i64 0, i64 0))
  br label %7

79:                                               ; preds = %7
  ret void
}

declare dso_local i32 @__isoc99_scanf(i8*, ...) #1

; Function Attrs: nounwind readonly
declare dso_local i64 @strlen(i8*) #2

declare dso_local i32 @printf(i8*, ...) #1


!llvm.module.flags = !{!0}
!llvm.ident = !{!1}

!0 = !{i32 1, !"wchar_size", i32 4}
!1 = !{!"clang version 10.0.0-4ubuntu1 "}
